; Function Attrs: mustprogress uwtable
define void @_ZN5faiss15IndexBinaryHashC2Ev(ptr noundef nonnull align 8 dereferenceable(96) %0) unnamed_addr #2 align 2 {
  tail call void @_ZN5faiss11IndexBinaryC2ElNS_10MetricTypeE(ptr noundef nonnull align 8 dereferenceable(32) %0, i64 noundef 0, i32 noundef 1)
  store ptr getelementptr inbounds ({ [16 x ptr] }, ptr @_ZTVN5faiss15IndexBinaryHashE, i64 0, i32 0, i64 2), ptr %0, align 8
  %2 = getelementptr inbounds i8, ptr %0, i64 32
  %3 = getelementptr inbounds i8, ptr %0, i64 80
  store ptr %3, ptr %2, align 8
  %4 = getelementptr inbounds i8, ptr %0, i64 40
  store i64 1, ptr %4, align 8
  %5 = getelementptr inbounds i8, ptr %0, i64 48
  %6 = getelementptr inbounds i8, ptr %0, i64 64
  tail call void @llvm.memset.p0.i64(ptr noundef nonnull align 8 dereferenceable(16) %5, i8 0, i64 16, i1 false)
  store float 1.000000e+00, ptr %6, align 8
  %7 = getelementptr inbounds i8, ptr %0, i64 72
  %8 = getelementptr inbounds i8, ptr %0, i64 25
  tail call void @llvm.memset.p0.i64(ptr noundef nonnull align 8 dereferenceable(24) %7, i8 0, i64 24, i1 false)
  store i8 1, ptr %8, align 1
  ret void
}